target datalayout = "e-m:e-p270:32:32-p271:32:32-p272:64:64-i64:64-i128:128-f80:128-n8:16:32:64-S128"
target triple = "x86_64-pc-linux-gnu"

%struct.MemoryRegion = type { %struct.Object, i8, i8, i8, i8, i8, i8, i8, i8, i8, i8, ptr, ptr, ptr, ptr, ptr, ptr, i32, i128, i64, ptr, i64, i8, i8, i8, i8, ptr, i64, i32, %union.anon, %union.anon.0, %union.anon.1, ptr, i32, ptr, ptr, i8 }
%struct.Object = type { ptr, ptr, ptr, i32, ptr }
%union.anon = type { %struct.QTailQLink }
%struct.QTailQLink = type { ptr, ptr }
%union.anon.0 = type { %struct.QTailQLink }
%union.anon.1 = type { %struct.QTailQLink }
%struct.VFIOPCIDevice = type { %struct.PCIDevice, %struct.VFIODevice, %struct.VFIOINTx, i32, ptr, i64, i32, i64, ptr, i32, ptr, ptr, i32, i32, [6 x %struct.VFIOBAR], ptr, ptr, %struct.PCIHostDeviceAddress, %struct.QemuUUID, %struct.EventNotifier, %struct.EventNotifier, ptr, i32, i32, i32, i32, i32, i32, i32, i32, i32, i32, i32, i8, i8, i8, i8, i8, i8, i8, i8, i8, i8, i8, i8, i8, i8, i32, i8, i8, i8, ptr, %struct.Notifier }
%struct.PCIDevice = type { %struct.DeviceState, i8, i8, ptr, ptr, ptr, ptr, ptr, i32, %struct.PCIReqIDCache, [64 x i8], [7 x %struct.PCIIORegion], %struct.AddressSpace, %struct.MemoryRegion, %struct.MemoryRegion, ptr, ptr, [3 x ptr], i8, i8, i32, i8, i32, ptr, ptr, ptr, ptr, ptr, ptr, %struct.MemoryRegion, %struct.MemoryRegion, %struct.MemoryRegion, ptr, i8, i32, i8, %struct.PCIExpressDevice, ptr, ptr, i32, i8, %struct.MemoryRegion, i32, ptr, ptr, ptr, ptr, i16, %struct.DOECap, ptr, i32, i32 }
%struct.DeviceState = type { %struct.Object, ptr, ptr, i8, i8, i64, i32, i8, ptr, %struct.NamedGPIOListHead, %struct.NamedClockListHead, %struct.BusStateHead, i32, i32, i32, %struct.ResettableState, ptr, %struct.MemReentrancyGuard }
%struct.NamedGPIOListHead = type { ptr }
%struct.NamedClockListHead = type { ptr }
%struct.BusStateHead = type { ptr }
%struct.ResettableState = type { i32, i8, i8 }
%struct.MemReentrancyGuard = type { i8 }
%struct.PCIReqIDCache = type { ptr, i32 }
%struct.PCIIORegion = type { i64, i64, i8, ptr, ptr }
%struct.AddressSpace = type { %struct.rcu_head, ptr, ptr, ptr, i32, i32, ptr, %union.anon.4, %union.anon.5, i64, i64, %struct.QemuMutex, %struct.anon.6 }
%struct.rcu_head = type { ptr, ptr }
%union.anon.4 = type { %struct.QTailQLink }
%union.anon.5 = type { %struct.QTailQLink }
%struct.QemuMutex = type { %union.pthread_mutex_t, i8 }
%union.pthread_mutex_t = type { %struct.__pthread_mutex_s }
%struct.__pthread_mutex_s = type { i32, i32, i32, i32, i32, i16, i16, %struct.__pthread_internal_list }
%struct.__pthread_internal_list = type { ptr, ptr }
%struct.anon.6 = type { ptr }
%struct.PCIExpressDevice = type { i8, i8, i8, i16, %struct.PCIEAERLog, i16, i16, i16, %struct.PCIESriovPF, %struct.PCIESriovVF }
%struct.PCIEAERLog = type { i16, i16, ptr }
%struct.PCIESriovPF = type { i16, [7 x i8], ptr, ptr }
%struct.PCIESriovVF = type { ptr, i16 }
%struct.DOECap = type { ptr, i16, %struct.anon.7, %struct.anon.8, %struct.anon.9, ptr, ptr, i32, i32, i32, ptr, i16, i32 }
%struct.anon.7 = type { i8, i16 }
%struct.anon.8 = type { i8, i8, i8 }
%struct.anon.9 = type { i8, i8, i8, i8 }
%struct.VFIODevice = type { %struct.anon.10, %struct.anon.11, %struct.anon.12, ptr, ptr, ptr, ptr, ptr, i32, i32, i8, i8, i8, i8, i8, i32, i8, ptr, i32, i32, i32, ptr, ptr, i32, i32, i8, i8, i8, ptr, i32, ptr, ptr, %struct.anon.13 }
%struct.anon.10 = type { ptr, ptr }
%struct.anon.11 = type { ptr, ptr }
%struct.anon.12 = type { ptr, ptr }
%struct.anon.13 = type { ptr, ptr }
%struct.VFIOINTx = type { i8, i8, i8, %struct.EventNotifier, %struct.EventNotifier, %struct.PCIINTxRoute, i32, ptr }
%struct.PCIINTxRoute = type { i32, i32 }
%struct.VFIOBAR = type { %struct.VFIORegion, ptr, i64, i8, i8, i8, %struct.anon.14 }
%struct.VFIORegion = type { ptr, i64, ptr, i64, i32, i32, ptr, i8 }
%struct.anon.14 = type { ptr }
%struct.PCIHostDeviceAddress = type { i32, i32, i32, i32 }
%struct.QemuUUID = type { %union.anon.15 }
%union.anon.15 = type { %struct.anon.16 }
%struct.anon.16 = type { i32, i16, i16, i8, i8, [6 x i8] }
%struct.EventNotifier = type { i32, i32, i8 }
%struct.Notifier = type { ptr, %struct.anon.17 }
%struct.anon.17 = type { ptr, ptr }

; Function Attrs: nounwind sspstrong uwtable
define internal void @vfio_bars_exit(ptr noundef %0) #0 {
  %2 = alloca ptr, align 8
  %3 = alloca i32, align 4
  %4 = alloca ptr, align 8
  store ptr %0, ptr %2, align 8
  call void @llvm.lifetime.start.p0(i64 4, ptr %3) #19
  store i32 0, ptr %3, align 4, !annotation !4
  store i32 0, ptr %3, align 4
  br label %5

5:                                                ; preds = %32, %1
  %6 = load i32, ptr %3, align 4
  %7 = icmp slt i32 %6, 6
  br i1 %7, label %8, label %35

8:                                                ; preds = %5
  call void @llvm.lifetime.start.p0(i64 8, ptr %4) #19
  %9 = load ptr, ptr %2, align 8
  %10 = getelementptr inbounds nuw %struct.VFIOPCIDevice, ptr %9, i32 0, i32 14
  %11 = load i32, ptr %3, align 4
  %12 = sext i32 %11 to i64
  %13 = getelementptr inbounds [6 x %struct.VFIOBAR], ptr %10, i64 0, i64 %12
  store ptr %13, ptr %4, align 8
  %14 = load ptr, ptr %2, align 8
  %15 = load i32, ptr %3, align 4
  call void @vfio_bar_quirk_exit(ptr noundef %14, i32 noundef %15)
  %16 = load ptr, ptr %4, align 8
  %17 = getelementptr inbounds nuw %struct.VFIOBAR, ptr %16, i32 0, i32 0
  call void @vfio_region_exit(ptr noundef %17)
  %18 = load ptr, ptr %4, align 8
  %19 = getelementptr inbounds nuw %struct.VFIOBAR, ptr %18, i32 0, i32 0
  %20 = getelementptr inbounds nuw %struct.VFIORegion, ptr %19, i32 0, i32 3
  %21 = load i64, ptr %20, align 8
  %22 = icmp ne i64 %21, 0
  br i1 %22, label %23, label %31

23:                                               ; preds = %8
  %24 = load ptr, ptr %4, align 8
  %25 = getelementptr inbounds nuw %struct.VFIOBAR, ptr %24, i32 0, i32 1
  %26 = load ptr, ptr %25, align 8
  %27 = load ptr, ptr %4, align 8
  %28 = getelementptr inbounds nuw %struct.VFIOBAR, ptr %27, i32 0, i32 0
  %29 = getelementptr inbounds nuw %struct.VFIORegion, ptr %28, i32 0, i32 2
  %30 = load ptr, ptr %29, align 8
  call void @memory_region_del_subregion(ptr noundef %26, ptr noundef %30)
  br label %31

31:                                               ; preds = %23, %8
  call void @llvm.lifetime.end.p0(i64 8, ptr %4) #19
  br label %32

32:                                               ; preds = %31
  %33 = load i32, ptr %3, align 4
  %34 = add i32 %33, 1
  store i32 %34, ptr %3, align 4
  br label %5, !llvm.loop !28

35:                                               ; preds = %5
  %36 = load ptr, ptr %2, align 8
  %37 = getelementptr inbounds nuw %struct.VFIOPCIDevice, ptr %36, i32 0, i32 15
  %38 = load ptr, ptr %37, align 8
  %39 = icmp ne ptr %38, null
  br i1 %39, label %40, label %44

40:                                               ; preds = %35
  %41 = load ptr, ptr %2, align 8
  %42 = getelementptr inbounds nuw %struct.VFIOPCIDevice, ptr %41, i32 0, i32 0
  call void @pci_unregister_vga(ptr noundef %42)
  %43 = load ptr, ptr %2, align 8
  call void @vfio_vga_quirk_exit(ptr noundef %43)
  br label %44

44:                                               ; preds = %40, %35
  call void @llvm.lifetime.end.p0(i64 4, ptr %3) #19
  ret void
}