; Function Attrs: nounwind sspstrong uwtable
define internal fastcc void @vfio_bars_exit(ptr noundef %0) unnamed_addr #0 {
  %2 = getelementptr inbounds nuw i8, ptr %0, i64 3096
  br label %3

3:                                                ; preds = %1, %13
  %indvars.iv = phi i64 [ 0, %1 ], [ %indvars.iv.next, %13 ]
  %4 = getelementptr inbounds nuw [6 x %struct.VFIOBAR], ptr %2, i64 0, i64 %indvars.iv
  %5 = trunc nuw nsw i64 %indvars.iv to i32
  tail call void @vfio_bar_quirk_exit(ptr noundef %0, i32 noundef %5) #26
  tail call void @vfio_region_exit(ptr noundef nonnull %4) #26
  %6 = getelementptr inbounds nuw i8, ptr %4, i64 24
  %7 = load i64, ptr %6, align 8
  %.not12 = icmp eq i64 %7, 0
  br i1 %.not12, label %13, label %8

8:                                                ; preds = %3
  %9 = getelementptr inbounds nuw i8, ptr %4, i64 56
  %10 = load ptr, ptr %9, align 8
  %11 = getelementptr inbounds nuw i8, ptr %4, i64 16
  %12 = load ptr, ptr %11, align 8
  tail call void @memory_region_del_subregion(ptr noundef %10, ptr noundef %12) #26
  br label %13

13:                                               ; preds = %8, %3
  %indvars.iv.next = add nuw nsw i64 %indvars.iv, 1
  %exitcond.not = icmp eq i64 %indvars.iv.next, 6
  br i1 %exitcond.not, label %14, label %3, !llvm.loop !32

14:                                               ; preds = %13
  %15 = getelementptr inbounds nuw i8, ptr %0, i64 3624
  %16 = load ptr, ptr %15, align 8
  %.not = icmp eq ptr %16, null
  br i1 %.not, label %18, label %17

17:                                               ; preds = %14
  tail call void @pci_unregister_vga(ptr noundef nonnull %0) #26
  tail call void @vfio_vga_quirk_exit(ptr noundef nonnull %0) #26
  br label %18

18:                                               ; preds = %17, %14
  ret void
}